target datalayout = "e-m:e-p270:32:32-p271:32:32-p272:64:64-i64:64-i128:128-f80:128-n8:16:32:64-S128"
target triple = "x86_64-pc-linux-gnu"

%struct.cache_tree = type { i32, %struct.object_id, i32, i32, ptr }
%struct.object_id = type { [32 x i8], i32 }
%struct.cache_tree_sub = type { ptr, i32, i32, i32, [0 x i8] }

@.str.13 = private unnamed_addr constant [27 x i8] c"size_t overflow: %lu * %lu\00", align 1
@.str.14 = private unnamed_addr constant [27 x i8] c"size_t overflow: %lu + %lu\00", align 1

; Function Attrs: nounwind uwtable
define internal i32 @subtree_name_cmp(ptr noundef %0, i32 noundef %1, ptr noundef %2, i32 noundef %3) #0 {
  %5 = alloca i32, align 4
  %6 = alloca ptr, align 8
  %7 = alloca i32, align 4
  %8 = alloca ptr, align 8
  %9 = alloca i32, align 4
  store ptr %0, ptr %6, align 8, !tbaa !23
  store i32 %1, ptr %7, align 4, !tbaa !16
  store ptr %2, ptr %8, align 8, !tbaa !23
  store i32 %3, ptr %9, align 4, !tbaa !16
  %10 = load i32, ptr %7, align 4, !tbaa !16
  %11 = load i32, ptr %9, align 4, !tbaa !16
  %12 = icmp slt i32 %10, %11
  br i1 %12, label %13, label %14

13:                                               ; preds = %4
  store i32 -1, ptr %5, align 4
  br label %25

14:                                               ; preds = %4
  %15 = load i32, ptr %9, align 4, !tbaa !16
  %16 = load i32, ptr %7, align 4, !tbaa !16
  %17 = icmp slt i32 %15, %16
  br i1 %17, label %18, label %19

18:                                               ; preds = %14
  store i32 1, ptr %5, align 4
  br label %25

19:                                               ; preds = %14
  %20 = load ptr, ptr %6, align 8, !tbaa !23
  %21 = load ptr, ptr %8, align 8, !tbaa !23
  %22 = load i32, ptr %7, align 4, !tbaa !16
  %23 = sext i32 %22 to i64
  %24 = call i32 @memcmp(ptr noundef %20, ptr noundef %21, i64 noundef %23) #11
  store i32 %24, ptr %5, align 4
  br label %25

25:                                               ; preds = %19, %18, %13
  %26 = load i32, ptr %5, align 4
  ret i32 %26
}

; Function Attrs: inlinehint nounwind uwtable
define internal void @move_array(ptr noundef %0, ptr noundef %1, i64 noundef %2, i64 noundef %3) #5 {
  %5 = alloca ptr, align 8
  %6 = alloca ptr, align 8
  %7 = alloca i64, align 8
  %8 = alloca i64, align 8
  store ptr %0, ptr %5, align 8, !tbaa !128
  store ptr %1, ptr %6, align 8, !tbaa !128
  store i64 %2, ptr %7, align 8, !tbaa !28
  store i64 %3, ptr %8, align 8, !tbaa !28
  %9 = load i64, ptr %7, align 8, !tbaa !28
  %10 = icmp ne i64 %9, 0
  br i1 %10, label %11, label %17

11:                                               ; preds = %4
  %12 = load ptr, ptr %5, align 8, !tbaa !128
  %13 = load ptr, ptr %6, align 8, !tbaa !128
  %14 = load i64, ptr %8, align 8, !tbaa !28
  %15 = load i64, ptr %7, align 8, !tbaa !28
  %16 = call i64 @st_mult(i64 noundef %14, i64 noundef %15)
  call void @llvm.memmove.p0.p0.i64(ptr align 1 %12, ptr align 1 %13, i64 %16, i1 false)
  br label %17

17:                                               ; preds = %11, %4
  ret void
}

; Function Attrs: inlinehint nounwind uwtable
define internal i64 @st_add(i64 noundef %0, i64 noundef %1) #5 {
  %3 = alloca i64, align 8
  %4 = alloca i64, align 8
  store i64 %0, ptr %3, align 8, !tbaa !28
  store i64 %1, ptr %4, align 8, !tbaa !28
  %5 = load i64, ptr %4, align 8, !tbaa !28
  %6 = load i64, ptr %3, align 8, !tbaa !28
  %7 = sub i64 -1, %6
  %8 = icmp ugt i64 %5, %7
  br i1 %8, label %9, label %12

9:                                                ; preds = %2
  %10 = load i64, ptr %3, align 8, !tbaa !28
  %11 = load i64, ptr %4, align 8, !tbaa !28
  call void (ptr, ...) @die(ptr noundef @.str.14, i64 noundef %10, i64 noundef %11) #12
  unreachable

12:                                               ; preds = %2
  %13 = load i64, ptr %3, align 8, !tbaa !28
  %14 = load i64, ptr %4, align 8, !tbaa !28
  %15 = add i64 %13, %14
  ret i64 %15
}

; Function Attrs: inlinehint nounwind uwtable
define internal i64 @st_mult(i64 noundef %0, i64 noundef %1) #5 {
  %3 = alloca i64, align 8
  %4 = alloca i64, align 8
  store i64 %0, ptr %3, align 8, !tbaa !28
  store i64 %1, ptr %4, align 8, !tbaa !28
  %5 = load i64, ptr %3, align 8, !tbaa !28
  %6 = icmp ne i64 %5, 0
  br i1 %6, label %7, label %15

7:                                                ; preds = %2
  %8 = load i64, ptr %4, align 8, !tbaa !28
  %9 = load i64, ptr %3, align 8, !tbaa !28
  %10 = udiv i64 -1, %9
  %11 = icmp ugt i64 %8, %10
  br i1 %11, label %12, label %15

12:                                               ; preds = %7
  %13 = load i64, ptr %3, align 8, !tbaa !28
  %14 = load i64, ptr %4, align 8, !tbaa !28
  call void (ptr, ...) @die(ptr noundef @.str.13, i64 noundef %13, i64 noundef %14) #12
  unreachable

15:                                               ; preds = %7, %2
  %16 = load i64, ptr %3, align 8, !tbaa !28
  %17 = load i64, ptr %4, align 8, !tbaa !28
  %18 = mul i64 %16, %17
  ret i64 %18
}

; Function Attrs: nounwind uwtable
define dso_local i32 @cache_tree_subtree_pos(ptr noundef %0, ptr noundef %1, i32 noundef %2) #0 {
  %4 = alloca i32, align 4
  %5 = alloca ptr, align 8
  %6 = alloca ptr, align 8
  %7 = alloca i32, align 4
  %8 = alloca ptr, align 8
  %9 = alloca i32, align 4
  %10 = alloca i32, align 4
  %11 = alloca i32, align 4
  %12 = alloca ptr, align 8
  %13 = alloca i32, align 4
  %14 = alloca i32, align 4
  store ptr %0, ptr %5, align 8, !tbaa !4
  store ptr %1, ptr %6, align 8, !tbaa !23
  store i32 %2, ptr %7, align 4, !tbaa !16
  call void @llvm.lifetime.start.p0(i64 8, ptr %8) #10
  %15 = load ptr, ptr %5, align 8, !tbaa !4
  %16 = getelementptr inbounds nuw %struct.cache_tree, ptr %15, i32 0, i32 4
  %17 = load ptr, ptr %16, align 8, !tbaa !18
  store ptr %17, ptr %8, align 8, !tbaa !25
  call void @llvm.lifetime.start.p0(i64 4, ptr %9) #10
  call void @llvm.lifetime.start.p0(i64 4, ptr %10) #10
  store i32 0, ptr %9, align 4, !tbaa !16
  %18 = load ptr, ptr %5, align 8, !tbaa !4
  %19 = getelementptr inbounds nuw %struct.cache_tree, ptr %18, i32 0, i32 2
  %20 = load i32, ptr %19, align 8, !tbaa !17
  store i32 %20, ptr %10, align 4, !tbaa !16
  br label %21

21:                                               ; preds = %61, %3
  %22 = load i32, ptr %9, align 4, !tbaa !16
  %23 = load i32, ptr %10, align 4, !tbaa !16
  %24 = icmp slt i32 %22, %23
  br i1 %24, label %25, label %62

25:                                               ; preds = %21
  call void @llvm.lifetime.start.p0(i64 4, ptr %11) #10
  %26 = load i32, ptr %9, align 4, !tbaa !16
  %27 = load i32, ptr %10, align 4, !tbaa !16
  %28 = load i32, ptr %9, align 4, !tbaa !16
  %29 = sub nsw i32 %27, %28
  %30 = sdiv i32 %29, 2
  %31 = add nsw i32 %26, %30
  store i32 %31, ptr %11, align 4, !tbaa !16
  call void @llvm.lifetime.start.p0(i64 8, ptr %12) #10
  %32 = load ptr, ptr %8, align 8, !tbaa !25
  %33 = load i32, ptr %11, align 4, !tbaa !16
  %34 = sext i32 %33 to i64
  %35 = getelementptr inbounds ptr, ptr %32, i64 %34
  %36 = load ptr, ptr %35, align 8, !tbaa !19
  store ptr %36, ptr %12, align 8, !tbaa !19
  call void @llvm.lifetime.start.p0(i64 4, ptr %13) #10
  %37 = load ptr, ptr %6, align 8, !tbaa !23
  %38 = load i32, ptr %7, align 4, !tbaa !16
  %39 = load ptr, ptr %12, align 8, !tbaa !19
  %40 = getelementptr inbounds nuw %struct.cache_tree_sub, ptr %39, i32 0, i32 4
  %41 = getelementptr inbounds [0 x i8], ptr %40, i64 0, i64 0
  %42 = load ptr, ptr %12, align 8, !tbaa !19
  %43 = getelementptr inbounds nuw %struct.cache_tree_sub, ptr %42, i32 0, i32 2
  %44 = load i32, ptr %43, align 4, !tbaa !16
  %45 = call i32 @subtree_name_cmp(ptr noundef %37, i32 noundef %38, ptr noundef %41, i32 noundef %44)
  store i32 %45, ptr %13, align 4, !tbaa !16
  %46 = load i32, ptr %13, align 4, !tbaa !16
  %47 = icmp ne i32 %46, 0
  br i1 %47, label %50, label %48

48:                                               ; preds = %25
  %49 = load i32, ptr %11, align 4, !tbaa !16
  store i32 %49, ptr %4, align 4
  store i32 1, ptr %14, align 4
  br label %59

50:                                               ; preds = %25
  %51 = load i32, ptr %13, align 4, !tbaa !16
  %52 = icmp slt i32 %51, 0
  br i1 %52, label %53, label %55

53:                                               ; preds = %50
  %54 = load i32, ptr %11, align 4, !tbaa !16
  store i32 %54, ptr %10, align 4, !tbaa !16
  br label %58

55:                                               ; preds = %50
  %56 = load i32, ptr %11, align 4, !tbaa !16
  %57 = add nsw i32 %56, 1
  store i32 %57, ptr %9, align 4, !tbaa !16
  br label %58

58:                                               ; preds = %55, %53
  store i32 0, ptr %14, align 4
  br label %59

59:                                               ; preds = %58, %48
  call void @llvm.lifetime.end.p0(i64 4, ptr %13) #10
  call void @llvm.lifetime.end.p0(i64 8, ptr %12) #10
  call void @llvm.lifetime.end.p0(i64 4, ptr %11) #10
  %60 = load i32, ptr %14, align 4
  switch i32 %60, label %66 [
    i32 0, label %61
  ]

61:                                               ; preds = %59
  br label %21, !llvm.loop !26

62:                                               ; preds = %21
  %63 = load i32, ptr %9, align 4, !tbaa !16
  %64 = sub nsw i32 0, %63
  %65 = sub nsw i32 %64, 1
  store i32 %65, ptr %4, align 4
  store i32 1, ptr %14, align 4
  br label %66

66:                                               ; preds = %62, %59
  call void @llvm.lifetime.end.p0(i64 4, ptr %10) #10
  call void @llvm.lifetime.end.p0(i64 4, ptr %9) #10
  call void @llvm.lifetime.end.p0(i64 8, ptr %8) #10
  %67 = load i32, ptr %4, align 4
  ret i32 %67
}

; Function Attrs: nounwind uwtable
define internal ptr @find_subtree(ptr noundef %0, ptr noundef %1, i32 noundef %2, i32 noundef %3) #0 {
  %5 = alloca ptr, align 8
  %6 = alloca ptr, align 8
  %7 = alloca ptr, align 8
  %8 = alloca i32, align 4
  %9 = alloca i32, align 4
  %10 = alloca ptr, align 8
  %11 = alloca i32, align 4
  %12 = alloca i32, align 4
  %13 = alloca i64, align 8
  store ptr %0, ptr %6, align 8, !tbaa !4
  store ptr %1, ptr %7, align 8, !tbaa !23
  store i32 %2, ptr %8, align 4, !tbaa !16
  store i32 %3, ptr %9, align 4, !tbaa !16
  call void @llvm.lifetime.start.p0(i64 8, ptr %10) #10
  call void @llvm.lifetime.start.p0(i64 4, ptr %11) #10
  %14 = load ptr, ptr %6, align 8, !tbaa !4
  %15 = load ptr, ptr %7, align 8, !tbaa !23
  %16 = load i32, ptr %8, align 4, !tbaa !16
  %17 = call i32 @cache_tree_subtree_pos(ptr noundef %14, ptr noundef %15, i32 noundef %16)
  store i32 %17, ptr %11, align 4, !tbaa !16
  %18 = load i32, ptr %11, align 4, !tbaa !16
  %19 = icmp sle i32 0, %18
  br i1 %19, label %20, label %28

20:                                               ; preds = %4
  %21 = load ptr, ptr %6, align 8, !tbaa !4
  %22 = getelementptr inbounds nuw %struct.cache_tree, ptr %21, i32 0, i32 4
  %23 = load ptr, ptr %22, align 8, !tbaa !18
  %24 = load i32, ptr %11, align 4, !tbaa !16
  %25 = sext i32 %24 to i64
  %26 = getelementptr inbounds ptr, ptr %23, i64 %25
  %27 = load ptr, ptr %26, align 8, !tbaa !19
  store ptr %27, ptr %5, align 8
  store i32 1, ptr %12, align 4
  br label %146

28:                                               ; preds = %4
  %29 = load i32, ptr %9, align 4, !tbaa !16
  %30 = icmp ne i32 %29, 0
  br i1 %30, label %32, label %31

31:                                               ; preds = %28
  store ptr null, ptr %5, align 8
  store i32 1, ptr %12, align 4
  br label %146

32:                                               ; preds = %28
  %33 = load i32, ptr %11, align 4, !tbaa !16
  %34 = sub nsw i32 0, %33
  %35 = sub nsw i32 %34, 1
  store i32 %35, ptr %11, align 4, !tbaa !16
  br label %36

36:                                               ; preds = %32
  %37 = load ptr, ptr %6, align 8, !tbaa !4
  %38 = getelementptr inbounds nuw %struct.cache_tree, ptr %37, i32 0, i32 2
  %39 = load i32, ptr %38, align 8, !tbaa !17
  %40 = add nsw i32 %39, 1
  %41 = load ptr, ptr %6, align 8, !tbaa !4
  %42 = getelementptr inbounds nuw %struct.cache_tree, ptr %41, i32 0, i32 3
  %43 = load i32, ptr %42, align 4, !tbaa !27
  %44 = icmp sgt i32 %40, %43
  br i1 %44, label %45, label %85

45:                                               ; preds = %36
  %46 = load ptr, ptr %6, align 8, !tbaa !4
  %47 = getelementptr inbounds nuw %struct.cache_tree, ptr %46, i32 0, i32 3
  %48 = load i32, ptr %47, align 4, !tbaa !27
  %49 = add nsw i32 %48, 16
  %50 = mul nsw i32 %49, 3
  %51 = sdiv i32 %50, 2
  %52 = load ptr, ptr %6, align 8, !tbaa !4
  %53 = getelementptr inbounds nuw %struct.cache_tree, ptr %52, i32 0, i32 2
  %54 = load i32, ptr %53, align 8, !tbaa !17
  %55 = add nsw i32 %54, 1
  %56 = icmp slt i32 %51, %55
  br i1 %56, label %57, label %64

57:                                               ; preds = %45
  %58 = load ptr, ptr %6, align 8, !tbaa !4
  %59 = getelementptr inbounds nuw %struct.cache_tree, ptr %58, i32 0, i32 2
  %60 = load i32, ptr %59, align 8, !tbaa !17
  %61 = add nsw i32 %60, 1
  %62 = load ptr, ptr %6, align 8, !tbaa !4
  %63 = getelementptr inbounds nuw %struct.cache_tree, ptr %62, i32 0, i32 3
  store i32 %61, ptr %63, align 4, !tbaa !27
  br label %73

64:                                               ; preds = %45
  %65 = load ptr, ptr %6, align 8, !tbaa !4
  %66 = getelementptr inbounds nuw %struct.cache_tree, ptr %65, i32 0, i32 3
  %67 = load i32, ptr %66, align 4, !tbaa !27
  %68 = add nsw i32 %67, 16
  %69 = mul nsw i32 %68, 3
  %70 = sdiv i32 %69, 2
  %71 = load ptr, ptr %6, align 8, !tbaa !4
  %72 = getelementptr inbounds nuw %struct.cache_tree, ptr %71, i32 0, i32 3
  store i32 %70, ptr %72, align 4, !tbaa !27
  br label %73

73:                                               ; preds = %64, %57
  %74 = load ptr, ptr %6, align 8, !tbaa !4
  %75 = getelementptr inbounds nuw %struct.cache_tree, ptr %74, i32 0, i32 4
  %76 = load ptr, ptr %75, align 8, !tbaa !18
  %77 = load ptr, ptr %6, align 8, !tbaa !4
  %78 = getelementptr inbounds nuw %struct.cache_tree, ptr %77, i32 0, i32 3
  %79 = load i32, ptr %78, align 4, !tbaa !27
  %80 = sext i32 %79 to i64
  %81 = call i64 @st_mult(i64 noundef 8, i64 noundef %80)
  %82 = call ptr @xrealloc(ptr noundef %76, i64 noundef %81)
  %83 = load ptr, ptr %6, align 8, !tbaa !4
  %84 = getelementptr inbounds nuw %struct.cache_tree, ptr %83, i32 0, i32 4
  store ptr %82, ptr %84, align 8, !tbaa !18
  br label %85

85:                                               ; preds = %73, %36
  br label %86

86:                                               ; preds = %85
  br label %87

87:                                               ; preds = %86
  %88 = load ptr, ptr %6, align 8, !tbaa !4
  %89 = getelementptr inbounds nuw %struct.cache_tree, ptr %88, i32 0, i32 2
  %90 = load i32, ptr %89, align 8, !tbaa !17
  %91 = add nsw i32 %90, 1
  store i32 %91, ptr %89, align 8, !tbaa !17
  br label %92

92:                                               ; preds = %87
  call void @llvm.lifetime.start.p0(i64 8, ptr %13) #10
  %93 = load i32, ptr %8, align 4, !tbaa !16
  %94 = sext i32 %93 to i64
  store i64 %94, ptr %13, align 8, !tbaa !28
  %95 = load i64, ptr %13, align 8, !tbaa !28
  %96 = call i64 @st_add(i64 noundef 24, i64 noundef %95)
  %97 = call i64 @st_add(i64 noundef %96, i64 noundef 1)
  %98 = call ptr @xcalloc(i64 noundef 1, i64 noundef %97)
  store ptr %98, ptr %10, align 8, !tbaa !19
  %99 = load ptr, ptr %10, align 8, !tbaa !19
  %100 = getelementptr inbounds nuw %struct.cache_tree_sub, ptr %99, i32 0, i32 4
  %101 = getelementptr inbounds [0 x i8], ptr %100, i64 0, i64 0
  %102 = load ptr, ptr %7, align 8, !tbaa !23
  %103 = load i64, ptr %13, align 8, !tbaa !28
  call void @llvm.memcpy.p0.p0.i64(ptr align 4 %101, ptr align 1 %102, i64 %103, i1 false)
  call void @llvm.lifetime.end.p0(i64 8, ptr %13) #10
  br label %104

104:                                              ; preds = %92
  br label %105

105:                                              ; preds = %104
  %106 = load ptr, ptr %10, align 8, !tbaa !19
  %107 = getelementptr inbounds nuw %struct.cache_tree_sub, ptr %106, i32 0, i32 0
  store ptr null, ptr %107, align 8, !tbaa !4
  %108 = load i32, ptr %8, align 4, !tbaa !16
  %109 = load ptr, ptr %10, align 8, !tbaa !19
  %110 = getelementptr inbounds nuw %struct.cache_tree_sub, ptr %109, i32 0, i32 2
  store i32 %108, ptr %110, align 4, !tbaa !16
  %111 = load i32, ptr %11, align 4, !tbaa !16
  %112 = load ptr, ptr %6, align 8, !tbaa !4
  %113 = getelementptr inbounds nuw %struct.cache_tree, ptr %112, i32 0, i32 2
  %114 = load i32, ptr %113, align 8, !tbaa !17
  %115 = icmp slt i32 %111, %114
  br i1 %115, label %116, label %137

116:                                              ; preds = %105
  %117 = load ptr, ptr %6, align 8, !tbaa !4
  %118 = getelementptr inbounds nuw %struct.cache_tree, ptr %117, i32 0, i32 4
  %119 = load ptr, ptr %118, align 8, !tbaa !18
  %120 = load i32, ptr %11, align 4, !tbaa !16
  %121 = sext i32 %120 to i64
  %122 = getelementptr inbounds ptr, ptr %119, i64 %121
  %123 = getelementptr inbounds ptr, ptr %122, i64 1
  %124 = load ptr, ptr %6, align 8, !tbaa !4
  %125 = getelementptr inbounds nuw %struct.cache_tree, ptr %124, i32 0, i32 4
  %126 = load ptr, ptr %125, align 8, !tbaa !18
  %127 = load i32, ptr %11, align 4, !tbaa !16
  %128 = sext i32 %127 to i64
  %129 = getelementptr inbounds ptr, ptr %126, i64 %128
  %130 = load ptr, ptr %6, align 8, !tbaa !4
  %131 = getelementptr inbounds nuw %struct.cache_tree, ptr %130, i32 0, i32 2
  %132 = load i32, ptr %131, align 8, !tbaa !17
  %133 = load i32, ptr %11, align 4, !tbaa !16
  %134 = sub nsw i32 %132, %133
  %135 = sub nsw i32 %134, 1
  %136 = sext i32 %135 to i64
  call void @move_array(ptr noundef %123, ptr noundef %129, i64 noundef %136, i64 noundef 8)
  br label %137

137:                                              ; preds = %116, %105
  %138 = load ptr, ptr %10, align 8, !tbaa !19
  %139 = load ptr, ptr %6, align 8, !tbaa !4
  %140 = getelementptr inbounds nuw %struct.cache_tree, ptr %139, i32 0, i32 4
  %141 = load ptr, ptr %140, align 8, !tbaa !18
  %142 = load i32, ptr %11, align 4, !tbaa !16
  %143 = sext i32 %142 to i64
  %144 = getelementptr inbounds ptr, ptr %141, i64 %143
  store ptr %138, ptr %144, align 8, !tbaa !19
  %145 = load ptr, ptr %10, align 8, !tbaa !19
  store ptr %145, ptr %5, align 8
  store i32 1, ptr %12, align 4
  br label %146

146:                                              ; preds = %137, %31, %20
  call void @llvm.lifetime.end.p0(i64 4, ptr %11) #10
  call void @llvm.lifetime.end.p0(i64 8, ptr %10) #10
  %147 = load ptr, ptr %5, align 8
  ret ptr %147
}