; Function Attrs: nounwind uwtable
define internal fastcc ptr @find_subtree(ptr noundef captures(none) %0, ptr noundef readonly captures(none) %1, i32 noundef %2, i32 noundef range(i32 0, 2) %3) unnamed_addr #0 {
  %5 = getelementptr inbounds nuw i8, ptr %0, i64 48
  %6 = load ptr, ptr %5, align 8, !tbaa !15
  %7 = getelementptr inbounds nuw i8, ptr %0, i64 40
  %8 = load i32, ptr %7, align 8, !tbaa !14
  %9 = sext i32 %2 to i64
  br label %10

10:                                               ; preds = %subtree_name_cmp.exit.i, %4
  %.024.i = phi i32 [ %8, %4 ], [ %.226.i, %subtree_name_cmp.exit.i ]
  %.021.i = phi i32 [ 0, %4 ], [ %.223.i, %subtree_name_cmp.exit.i ]
  %11 = icmp slt i32 %.021.i, %.024.i
  br i1 %11, label %12, label %29

12:                                               ; preds = %10
  %13 = sub nsw i32 %.024.i, %.021.i
  %14 = sdiv i32 %13, 2
  %15 = add nsw i32 %14, %.021.i
  %16 = sext i32 %15 to i64
  %17 = getelementptr inbounds ptr, ptr %6, i64 %16
  %18 = load ptr, ptr %17, align 8, !tbaa !16
  %19 = getelementptr inbounds nuw i8, ptr %18, i64 20
  %20 = getelementptr inbounds nuw i8, ptr %18, i64 12
  %21 = load i32, ptr %20, align 4, !tbaa !20
  %22 = icmp slt i32 %2, %21
  br i1 %22, label %subtree_name_cmp.exit.i, label %23

23:                                               ; preds = %12
  %24 = icmp slt i32 %21, %2
  br i1 %24, label %subtree_name_cmp.exit.i, label %25

25:                                               ; preds = %23
  %26 = tail call i32 @memcmp(ptr noundef readonly %1, ptr noundef nonnull readonly %19, i64 noundef %9) #19
  br label %subtree_name_cmp.exit.i

subtree_name_cmp.exit.i:                          ; preds = %25, %23, %12
  %.0.i.i = phi i32 [ %26, %25 ], [ -1, %12 ], [ 1, %23 ]
  %.not.not.i = icmp eq i32 %.0.i.i, 0
  %27 = icmp slt i32 %.0.i.i, 0
  %28 = add nsw i32 %15, 1
  %.226.i = select i1 %27, i32 %15, i32 %.024.i
  %.223.i = select i1 %27, i32 %.021.i, i32 %28
  br i1 %.not.not.i, label %cache_tree_subtree_pos.exit, label %10, !llvm.loop !21

29:                                               ; preds = %10
  %30 = xor i32 %.021.i, -1
  br label %cache_tree_subtree_pos.exit

cache_tree_subtree_pos.exit:                      ; preds = %subtree_name_cmp.exit.i, %29
  %.2.i = phi i32 [ %30, %29 ], [ %15, %subtree_name_cmp.exit.i ]
  %31 = icmp sgt i32 %.2.i, -1
  br i1 %31, label %32, label %36

32:                                               ; preds = %cache_tree_subtree_pos.exit
  %33 = zext nneg i32 %.2.i to i64
  %34 = getelementptr inbounds nuw ptr, ptr %6, i64 %33
  %35 = load ptr, ptr %34, align 8, !tbaa !16
  br label %76

36:                                               ; preds = %cache_tree_subtree_pos.exit
  %.not = icmp eq i32 %3, 0
  br i1 %.not, label %76, label %37

37:                                               ; preds = %36
  %38 = xor i32 %.2.i, -1
  %39 = getelementptr inbounds nuw i8, ptr %0, i64 44
  %40 = load i32, ptr %39, align 4, !tbaa !22
  %.not46 = icmp slt i32 %8, %40
  br i1 %.not46, label %51, label %41

41:                                               ; preds = %37
  %42 = add nsw i32 %8, 1
  %43 = mul i32 %40, 3
  %44 = add i32 %43, 48
  %45 = sdiv i32 %44, 2
  %.not47 = icmp sgt i32 %45, %8
  %. = select i1 %.not47, i32 %45, i32 %42
  store i32 %., ptr %39, align 4, !tbaa !22
  %46 = sext i32 %. to i64
  %47 = icmp slt i32 %., 0
  br i1 %47, label %48, label %st_mult.exit

48:                                               ; preds = %41
  tail call void (ptr, ...) @die(ptr noundef nonnull @.str.13, i64 noundef 8, i64 noundef range(i64 -2147483648, 2147483648) %46) #20
  unreachable

st_mult.exit:                                     ; preds = %41
  %49 = shl nuw nsw i64 %46, 3
  %50 = tail call ptr @xrealloc(ptr noundef %6, i64 noundef %49) #18
  store ptr %50, ptr %5, align 8, !tbaa !15
  %.pre = load i32, ptr %7, align 8, !tbaa !14
  br label %51

51:                                               ; preds = %st_mult.exit, %37
  %52 = phi i32 [ %.pre, %st_mult.exit ], [ %8, %37 ]
  %53 = add nsw i32 %52, 1
  store i32 %53, ptr %7, align 8, !tbaa !14
  %54 = icmp ugt i32 %2, -25
  br i1 %54, label %55, label %st_add.exit

55:                                               ; preds = %51
  tail call void (ptr, ...) @die(ptr noundef nonnull @.str.14, i64 noundef 24, i64 noundef range(i64 -2147483648, 2147483648) %9) #20
  unreachable

st_add.exit:                                      ; preds = %51
  %56 = icmp eq i32 %2, -25
  br i1 %56, label %57, label %st_add.exit48

57:                                               ; preds = %st_add.exit
  tail call void (ptr, ...) @die(ptr noundef nonnull @.str.14, i64 noundef -1, i64 noundef 1) #20
  unreachable

st_add.exit48:                                    ; preds = %st_add.exit
  %58 = add nsw i64 %9, 25
  %59 = tail call ptr @xcalloc(i64 noundef 1, i64 noundef %58) #18
  %60 = getelementptr inbounds nuw i8, ptr %59, i64 20
  tail call void @llvm.memcpy.p0.p0.i64(ptr nonnull align 4 %60, ptr align 1 %1, i64 %9, i1 false)
  store ptr null, ptr %59, align 8, !tbaa !12
  %61 = getelementptr inbounds nuw i8, ptr %59, i64 12
  store i32 %2, ptr %61, align 4, !tbaa !20
  %62 = load i32, ptr %7, align 8, !tbaa !14
  %63 = icmp sgt i32 %62, %38
  %.pre52 = load ptr, ptr %5, align 8, !tbaa !15
  %64 = zext nneg i32 %38 to i64
  br i1 %63, label %65, label %move_array.exit

65:                                               ; preds = %st_add.exit48
  %66 = getelementptr inbounds nuw ptr, ptr %.pre52, i64 %64
  %67 = getelementptr inbounds nuw i8, ptr %66, i64 8
  %68 = add nsw i32 %62, %.2.i
  %69 = sext i32 %68 to i64
  %.not.i = icmp eq i32 %68, 0
  br i1 %.not.i, label %move_array.exit, label %70

70:                                               ; preds = %65
  %71 = icmp slt i32 %68, 0
  br i1 %71, label %72, label %st_mult.exit.i

72:                                               ; preds = %70
  tail call void (ptr, ...) @die(ptr noundef nonnull @.str.13, i64 noundef 8, i64 noundef range(i64 -2147483648, 2147483647) %69) #20
  unreachable

st_mult.exit.i:                                   ; preds = %70
  %73 = shl nuw nsw i64 %69, 3
  tail call void @llvm.memmove.p0.p0.i64(ptr nonnull align 1 %67, ptr readonly align 1 %66, i64 %73, i1 false)
  %.pre51 = load ptr, ptr %5, align 8, !tbaa !15
  br label %move_array.exit

move_array.exit:                                  ; preds = %st_add.exit48, %st_mult.exit.i, %65
  %74 = phi ptr [ %.pre51, %st_mult.exit.i ], [ %.pre52, %65 ], [ %.pre52, %st_add.exit48 ]
  %75 = getelementptr inbounds nuw ptr, ptr %74, i64 %64
  store ptr %59, ptr %75, align 8, !tbaa !16
  br label %76

76:                                               ; preds = %36, %move_array.exit, %32
  %.0 = phi ptr [ %35, %32 ], [ %59, %move_array.exit ], [ null, %36 ]
  ret ptr %.0
}